ARM GAS  C:\Users\jdrd3\AppData\Local\Temp\cc0ZjQfb.s 			page 1


   1              		.syntax unified
   2              		.cpu cortex-m3
   3              		.fpu softvfp
   4              		.eabi_attribute 20, 1
   5              		.eabi_attribute 21, 1
   6              		.eabi_attribute 23, 3
   7              		.eabi_attribute 24, 1
   8              		.eabi_attribute 25, 1
   9              		.eabi_attribute 26, 1
  10              		.eabi_attribute 30, 1
  11              		.eabi_attribute 34, 1
  12              		.eabi_attribute 18, 4
  13              		.thumb
  14              		.syntax unified
  15              		.file	"main.c"
  16              		.text
  17              	.Ltext0:
  18              		.cfi_sections	.debug_frame
  19              		.global	__aeabi_f2d
  20              		.global	__aeabi_fmul
  21              		.global	__aeabi_fdiv
  22              		.global	__aeabi_f2iz
  23              		.section	.text.main,"ax",%progbits
  24              		.align	2
  25              		.global	main
  26              		.thumb
  27              		.thumb_func
  28              		.type	main, %function
  29              	main:
  30              	.LFB64:
  31              		.file 1 "main.c"
   1:main.c        **** /* ========================================
   2:main.c        ****  *
   3:main.c        ****  * Copyright YOUR COMPANY, THE YEAR
   4:main.c        ****  * All Rights Reserved
   5:main.c        ****  * UNPUBLISHED, LICENSED SOFTWARE.
   6:main.c        ****  *
   7:main.c        ****  * CONFIDENTIAL AND PROPRIETARY INFORMATION
   8:main.c        ****  * WHICH IS THE PROPERTY OF your company.
   9:main.c        ****  *
  10:main.c        ****  * ========================================
  11:main.c        **** */
  12:main.c        **** #include "project.h"
  13:main.c        **** #include "stdio.h"
  14:main.c        **** 
  15:main.c        **** 
  16:main.c        **** int main(void)
  17:main.c        **** {
  32              		.loc 1 17 0
  33              		.cfi_startproc
  34              		@ args = 0, pretend = 0, frame = 16
  35              		@ frame_needed = 0, uses_anonymous_args = 0
  36 0000 70B5     		push	{r4, r5, r6, lr}
  37              		.cfi_def_cfa_offset 16
  38              		.cfi_offset 4, -16
  39              		.cfi_offset 5, -12
  40              		.cfi_offset 6, -8
ARM GAS  C:\Users\jdrd3\AppData\Local\Temp\cc0ZjQfb.s 			page 2


  41              		.cfi_offset 14, -4
  42 0002 84B0     		sub	sp, sp, #16
  43              		.cfi_def_cfa_offset 32
  18:main.c        ****     CyGlobalIntEnable; /* Enable global interrupts. */
  44              		.loc 1 18 0
  45              		.syntax unified
  46              	@ 18 "main.c" 1
  47 0004 62B6     		CPSIE   i
  48              	@ 0 "" 2
  19:main.c        ****     int32 enteros[3];
  20:main.c        ****     float voltajes[3];
  21:main.c        ****     int ciclo_util;
  22:main.c        ****     char str[12];
  23:main.c        ****     
  24:main.c        ****     ADC_Start();
  49              		.loc 1 24 0
  50              		.thumb
  51              		.syntax unified
  52 0006 FFF7FEFF 		bl	ADC_Start
  53              	.LVL0:
  25:main.c        ****     PWM_Start();
  54              		.loc 1 25 0
  55 000a FFF7FEFF 		bl	PWM_Start
  56              	.LVL1:
  26:main.c        ****     LCD_Start();
  57              		.loc 1 26 0
  58 000e FFF7FEFF 		bl	LCD_Start
  59              	.LVL2:
  27:main.c        ****     AMux_Start();
  60              		.loc 1 27 0
  61 0012 FFF7FEFF 		bl	AMux_Start
  62              	.LVL3:
  63              	.L2:
  28:main.c        **** 
  29:main.c        **** 
  30:main.c        ****     for(;;)
  31:main.c        ****     {
  32:main.c        ****     AMux_FastSelect(0);
  64              		.loc 1 32 0 discriminator 1
  65 0016 0020     		movs	r0, #0
  66 0018 FFF7FEFF 		bl	AMux_FastSelect
  67              	.LVL4:
  33:main.c        ****     ADC_StartConvert();
  68              		.loc 1 33 0 discriminator 1
  69 001c FFF7FEFF 		bl	ADC_StartConvert
  70              	.LVL5:
  34:main.c        ****     ADC_IsEndConversion(ADC_WAIT_FOR_RESULT);
  71              		.loc 1 34 0 discriminator 1
  72 0020 0020     		movs	r0, #0
  73 0022 FFF7FEFF 		bl	ADC_IsEndConversion
  74              	.LVL6:
  35:main.c        ****     enteros[0] = ADC_GetResult32();;    
  75              		.loc 1 35 0 discriminator 1
  76 0026 FFF7FEFF 		bl	ADC_GetResult32
  77              	.LVL7:
  78 002a 0446     		mov	r4, r0
  36:main.c        ****     ADC_StopConvert();
ARM GAS  C:\Users\jdrd3\AppData\Local\Temp\cc0ZjQfb.s 			page 3


  79              		.loc 1 36 0 discriminator 1
  80 002c FFF7FEFF 		bl	ADC_StopConvert
  81              	.LVL8:
  37:main.c        ****     
  38:main.c        ****     voltajes[0] = ADC_CountsTo_Volts(enteros[0]);
  82              		.loc 1 38 0 discriminator 1
  83 0030 2046     		mov	r0, r4
  84 0032 FFF7FEFF 		bl	ADC_CountsTo_Volts
  85              	.LVL9:
  39:main.c        ****     sprintf(str,"%.4f",voltajes[0]);
  86              		.loc 1 39 0 discriminator 1
  87 0036 FFF7FEFF 		bl	__aeabi_f2d
  88              	.LVL10:
  89 003a 374C     		ldr	r4, .L4
  90 003c 0246     		mov	r2, r0
  91 003e 0B46     		mov	r3, r1
  92 0040 2146     		mov	r1, r4
  93 0042 01A8     		add	r0, sp, #4
  94 0044 FFF7FEFF 		bl	sprintf
  95              	.LVL11:
  40:main.c        ****     LCD_Position(0,0);
  96              		.loc 1 40 0 discriminator 1
  97 0048 0021     		movs	r1, #0
  98 004a 0846     		mov	r0, r1
  99 004c FFF7FEFF 		bl	LCD_Position
 100              	.LVL12:
  41:main.c        ****     LCD_PrintString("A0");
 101              		.loc 1 41 0 discriminator 1
 102 0050 3248     		ldr	r0, .L4+4
 103 0052 FFF7FEFF 		bl	LCD_PrintString
 104              	.LVL13:
  42:main.c        ****     LCD_Position(1,0);
 105              		.loc 1 42 0 discriminator 1
 106 0056 0021     		movs	r1, #0
 107 0058 0120     		movs	r0, #1
 108 005a FFF7FEFF 		bl	LCD_Position
 109              	.LVL14:
  43:main.c        ****     LCD_PrintString(str);
 110              		.loc 1 43 0 discriminator 1
 111 005e 01A8     		add	r0, sp, #4
 112 0060 FFF7FEFF 		bl	LCD_PrintString
 113              	.LVL15:
  44:main.c        ****     
  45:main.c        ****     
  46:main.c        ****     AMux_FastSelect(1);
 114              		.loc 1 46 0 discriminator 1
 115 0064 0120     		movs	r0, #1
 116 0066 FFF7FEFF 		bl	AMux_FastSelect
 117              	.LVL16:
  47:main.c        ****     ADC_StartConvert();
 118              		.loc 1 47 0 discriminator 1
 119 006a FFF7FEFF 		bl	ADC_StartConvert
 120              	.LVL17:
  48:main.c        ****     ADC_IsEndConversion(ADC_WAIT_FOR_RESULT);
 121              		.loc 1 48 0 discriminator 1
 122 006e 0020     		movs	r0, #0
 123 0070 FFF7FEFF 		bl	ADC_IsEndConversion
ARM GAS  C:\Users\jdrd3\AppData\Local\Temp\cc0ZjQfb.s 			page 4


 124              	.LVL18:
  49:main.c        ****     enteros[1] = ADC_GetResult32();;    
 125              		.loc 1 49 0 discriminator 1
 126 0074 FFF7FEFF 		bl	ADC_GetResult32
 127              	.LVL19:
 128 0078 0546     		mov	r5, r0
  50:main.c        ****     ADC_StopConvert();
 129              		.loc 1 50 0 discriminator 1
 130 007a FFF7FEFF 		bl	ADC_StopConvert
 131              	.LVL20:
  51:main.c        ****     
  52:main.c        ****     voltajes[1] = ADC_CountsTo_Volts(enteros[1]);
 132              		.loc 1 52 0 discriminator 1
 133 007e 2846     		mov	r0, r5
 134 0080 FFF7FEFF 		bl	ADC_CountsTo_Volts
 135              	.LVL21:
 136 0084 0546     		mov	r5, r0
  53:main.c        ****     sprintf(str,"%.4f",voltajes[1]);
 137              		.loc 1 53 0 discriminator 1
 138 0086 FFF7FEFF 		bl	__aeabi_f2d
 139              	.LVL22:
 140 008a 0246     		mov	r2, r0
 141 008c 0B46     		mov	r3, r1
 142 008e 2146     		mov	r1, r4
 143 0090 01A8     		add	r0, sp, #4
 144 0092 FFF7FEFF 		bl	sprintf
 145              	.LVL23:
  54:main.c        ****     LCD_Position(0,5);
 146              		.loc 1 54 0 discriminator 1
 147 0096 0521     		movs	r1, #5
 148 0098 0020     		movs	r0, #0
 149 009a FFF7FEFF 		bl	LCD_Position
 150              	.LVL24:
  55:main.c        ****     LCD_PrintString("A1");
 151              		.loc 1 55 0 discriminator 1
 152 009e 2048     		ldr	r0, .L4+8
 153 00a0 FFF7FEFF 		bl	LCD_PrintString
 154              	.LVL25:
  56:main.c        ****     LCD_Position(1,5);
 155              		.loc 1 56 0 discriminator 1
 156 00a4 0521     		movs	r1, #5
 157 00a6 0120     		movs	r0, #1
 158 00a8 FFF7FEFF 		bl	LCD_Position
 159              	.LVL26:
  57:main.c        ****     LCD_PrintString(str);
 160              		.loc 1 57 0 discriminator 1
 161 00ac 01A8     		add	r0, sp, #4
 162 00ae FFF7FEFF 		bl	LCD_PrintString
 163              	.LVL27:
  58:main.c        ****     
  59:main.c        ****     
  60:main.c        ****     AMux_FastSelect(2);
 164              		.loc 1 60 0 discriminator 1
 165 00b2 0220     		movs	r0, #2
 166 00b4 FFF7FEFF 		bl	AMux_FastSelect
 167              	.LVL28:
  61:main.c        ****     ADC_StartConvert();
ARM GAS  C:\Users\jdrd3\AppData\Local\Temp\cc0ZjQfb.s 			page 5


 168              		.loc 1 61 0 discriminator 1
 169 00b8 FFF7FEFF 		bl	ADC_StartConvert
 170              	.LVL29:
  62:main.c        ****     ADC_IsEndConversion(ADC_WAIT_FOR_RESULT);
 171              		.loc 1 62 0 discriminator 1
 172 00bc 0020     		movs	r0, #0
 173 00be FFF7FEFF 		bl	ADC_IsEndConversion
 174              	.LVL30:
  63:main.c        ****     enteros[2] = ADC_GetResult32();;    
 175              		.loc 1 63 0 discriminator 1
 176 00c2 FFF7FEFF 		bl	ADC_GetResult32
 177              	.LVL31:
 178 00c6 0646     		mov	r6, r0
  64:main.c        ****     ADC_StopConvert();
 179              		.loc 1 64 0 discriminator 1
 180 00c8 FFF7FEFF 		bl	ADC_StopConvert
 181              	.LVL32:
  65:main.c        ****     
  66:main.c        ****     voltajes[2] = ADC_CountsTo_Volts(enteros[2]);
 182              		.loc 1 66 0 discriminator 1
 183 00cc 3046     		mov	r0, r6
 184 00ce FFF7FEFF 		bl	ADC_CountsTo_Volts
 185              	.LVL33:
  67:main.c        ****     sprintf(str,"%.4f",voltajes[2]);
 186              		.loc 1 67 0 discriminator 1
 187 00d2 FFF7FEFF 		bl	__aeabi_f2d
 188              	.LVL34:
 189 00d6 0246     		mov	r2, r0
 190 00d8 0B46     		mov	r3, r1
 191 00da 2146     		mov	r1, r4
 192 00dc 01A8     		add	r0, sp, #4
 193 00de FFF7FEFF 		bl	sprintf
 194              	.LVL35:
  68:main.c        ****     LCD_Position(0,10);
 195              		.loc 1 68 0 discriminator 1
 196 00e2 0A21     		movs	r1, #10
 197 00e4 0020     		movs	r0, #0
 198 00e6 FFF7FEFF 		bl	LCD_Position
 199              	.LVL36:
  69:main.c        ****     LCD_PrintString("A2");
 200              		.loc 1 69 0 discriminator 1
 201 00ea 0E48     		ldr	r0, .L4+12
 202 00ec FFF7FEFF 		bl	LCD_PrintString
 203              	.LVL37:
  70:main.c        ****     LCD_Position(1,10);
 204              		.loc 1 70 0 discriminator 1
 205 00f0 0A21     		movs	r1, #10
 206 00f2 0120     		movs	r0, #1
 207 00f4 FFF7FEFF 		bl	LCD_Position
 208              	.LVL38:
  71:main.c        ****     LCD_PrintString(str);
 209              		.loc 1 71 0 discriminator 1
 210 00f8 01A8     		add	r0, sp, #4
 211 00fa FFF7FEFF 		bl	LCD_PrintString
 212              	.LVL39:
  72:main.c        ****     
  73:main.c        ****     ciclo_util=(voltajes[1]*255)/5;
ARM GAS  C:\Users\jdrd3\AppData\Local\Temp\cc0ZjQfb.s 			page 6


 213              		.loc 1 73 0 discriminator 1
 214 00fe 0A49     		ldr	r1, .L4+16
 215 0100 2846     		mov	r0, r5
 216 0102 FFF7FEFF 		bl	__aeabi_fmul
 217              	.LVL40:
 218 0106 0949     		ldr	r1, .L4+20
 219 0108 FFF7FEFF 		bl	__aeabi_fdiv
 220              	.LVL41:
 221 010c FFF7FEFF 		bl	__aeabi_f2iz
 222              	.LVL42:
  74:main.c        ****     PWM_WriteCompare(ciclo_util);
 223              		.loc 1 74 0 discriminator 1
 224 0110 C0B2     		uxtb	r0, r0
 225              	.LVL43:
 226 0112 FFF7FEFF 		bl	PWM_WriteCompare
 227              	.LVL44:
 228 0116 7EE7     		b	.L2
 229              	.L5:
 230              		.align	2
 231              	.L4:
 232 0118 00000000 		.word	.LC0
 233 011c 08000000 		.word	.LC1
 234 0120 0C000000 		.word	.LC2
 235 0124 10000000 		.word	.LC3
 236 0128 00007F43 		.word	1132396544
 237 012c 0000A040 		.word	1084227584
 238              		.cfi_endproc
 239              	.LFE64:
 240              		.size	main, .-main
 241              		.section	.rodata.str1.4,"aMS",%progbits,1
 242              		.align	2
 243              	.LC0:
 244 0000 252E3466 		.ascii	"%.4f\000"
 244      00
 245 0005 000000   		.space	3
 246              	.LC1:
 247 0008 413000   		.ascii	"A0\000"
 248 000b 00       		.space	1
 249              	.LC2:
 250 000c 413100   		.ascii	"A1\000"
 251 000f 00       		.space	1
 252              	.LC3:
 253 0010 413200   		.ascii	"A2\000"
 254              		.text
 255              	.Letext0:
 256              		.file 2 "c:\\program files (x86)\\cypress\\psoc creator\\4.2\\psoc creator\\import\\gnu\\arm\\5.4.
 257              		.file 3 "c:\\program files (x86)\\cypress\\psoc creator\\4.2\\psoc creator\\import\\gnu\\arm\\5.4.
 258              		.file 4 "Generated_Source\\PSoC5/cytypes.h"
 259              		.file 5 "Generated_Source\\PSoC5/ADC.h"
 260              		.file 6 "Generated_Source\\PSoC5/PWM.h"
 261              		.file 7 "Generated_Source\\PSoC5/LCD.h"
 262              		.file 8 "Generated_Source\\PSoC5/AMux.h"
 263              		.file 9 "c:\\program files (x86)\\cypress\\psoc creator\\4.2\\psoc creator\\import\\gnu\\arm\\5.4.
 264              		.file 10 "Generated_Source\\PSoC5/core_cm3.h"